target datalayout = "e-m:e-p270:32:32-p271:32:32-p272:64:64-i64:64-i128:128-f80:128-n8:16:32:64-S128"
target triple = "x86_64-pc-linux-gnu"

%struct.slurm_conf_t = type { i64, ptr, i16, ptr, ptr, ptr, ptr, ptr, i16, ptr, ptr, ptr, ptr, ptr, ptr, ptr, i16, ptr, ptr, ptr, ptr, i16, ptr, ptr, ptr, i64, ptr, ptr, ptr, ptr, i16, ptr, ptr, i16, i32, ptr, i32, ptr, i32, i32, ptr, ptr, i64, i64, ptr, i16, i16, ptr, i32, i32, ptr, i32, ptr, i32, i16, i16, i16, ptr, i16, i16, ptr, ptr, i32, i16, i16, ptr, i32, i16, ptr, ptr, ptr, ptr, i16, ptr, ptr, ptr, ptr, i32, ptr, ptr, ptr, ptr, i16, i16, ptr, i32, i32, i32, i16, i16, ptr, ptr, i16, ptr, ptr, i32, i32, i32, i32, i32, i64, i32, i32, i16, ptr, ptr, i32, ptr, ptr, ptr, i16, i32, ptr, ptr, i16, ptr, ptr, i32, i16, ptr, ptr, ptr, ptr, i32, i32, i16, i16, i32, ptr, i16, ptr, i32, i32, i32, i32, i32, i32, ptr, i16, ptr, ptr, i32, i16, ptr, i32, i16, i16, ptr, ptr, ptr, i16, ptr, ptr, ptr, ptr, i16, i16, ptr, i16, ptr, i16, ptr, i16, ptr, i16, ptr, ptr, ptr, ptr, i16, ptr, ptr, ptr, i32, ptr, i32, ptr, ptr, i16, ptr, ptr, i32, i16, ptr, ptr, i16, i16, ptr, i16, ptr, ptr, ptr, i32, ptr, i16, i16, ptr, ptr, ptr, ptr, ptr, ptr, ptr, ptr, i16, i32, i16, ptr, ptr, ptr, ptr, i32, ptr, ptr, ptr, i16, ptr, ptr, ptr, i16, ptr, i16, ptr, i16, i16, ptr }
%struct.job_record = type { i32, ptr, ptr, ptr, ptr, i16, i32, i32, i32, ptr, i32, ptr, ptr, i16, ptr, double, i64, ptr, ptr, ptr, ptr, ptr, ptr, i32, ptr, i32, i64, i64, i32, i32, ptr, i16, i64, i64, i8, i32, ptr, ptr, ptr, ptr, ptr, ptr, ptr, ptr, i32, ptr, ptr, i32, ptr, i32, ptr, i32, ptr, i32, ptr, ptr, ptr, ptr, ptr, ptr, i32, i16, i64, ptr, ptr, ptr, ptr, %struct.acct_policy_limit_set_t, i16, ptr, ptr, ptr, ptr, ptr, i32, ptr, ptr, ptr, ptr, ptr, i32, i32, ptr, ptr, ptr, i16, ptr, ptr, i8, ptr, ptr, i64, i64, i8, i32, i32, i8, i32, ptr, i32, i64, i32, ptr, ptr, ptr, i8, i16, i64, i32, ptr, ptr, ptr, ptr, ptr, i16, i32, ptr, ptr, ptr, ptr, i32, ptr, i32, i16, i64, ptr, i32, i32, ptr, i64, ptr, ptr, i64, i32, i32, i64, i32, i32, ptr, ptr, ptr, ptr, ptr, ptr, ptr, ptr, ptr, ptr, ptr, ptr, i32, ptr, i16, i16, i16, i16, ptr, i32, i32, i8, i64 }
%struct.acct_policy_limit_set_t = type { i16, i16, ptr }

@port_resv_cnt = dso_local global i32 0, align 4
@.str.12 = private unnamed_addr constant [47 x i8] c"%pJ needs %u reserved ports, but only %d exist\00", align 1
@slurm_conf = external global %struct.slurm_conf_t, align 8
@.str.15 = private unnamed_addr constant [15 x i8] c"enable_stepmgr\00", align 1
@.str.16 = private unnamed_addr constant [103 x i8] c"%pJ requested a reserve port count for the allocation but slurmstepd step management isn't be enabled.\00", align 1

; Function Attrs: nounwind uwtable
define dso_local i32 @resv_port_check_job_request_cnt(ptr noundef %0) #0 {
  %2 = alloca i32, align 4
  %3 = alloca ptr, align 8
  store ptr %0, ptr %3, align 8
  %4 = load ptr, ptr %3, align 8
  %5 = getelementptr inbounds nuw %struct.job_record, ptr %4, i32 0, i32 114
  %6 = load i16, ptr %5, align 8
  %7 = zext i16 %6 to i32
  %8 = icmp ne i32 %7, 0
  br i1 %8, label %9, label %22

9:                                                ; preds = %1
  %10 = load ptr, ptr %3, align 8
  %11 = getelementptr inbounds nuw %struct.job_record, ptr %10, i32 0, i32 16
  %12 = load i64, ptr %11, align 8
  %13 = and i64 %12, 2199023255552
  %14 = icmp ne i64 %13, 0
  br i1 %14, label %22, label %15

15:                                               ; preds = %9
  %16 = load ptr, ptr getelementptr inbounds nuw (%struct.slurm_conf_t, ptr @slurm_conf, i32 0, i32 187), align 8
  %17 = call ptr @xstrstr(ptr noundef %16, ptr noundef @.str.15)
  %18 = icmp ne ptr %17, null
  br i1 %18, label %22, label %19

19:                                               ; preds = %15
  %20 = load ptr, ptr %3, align 8
  %21 = call i32 (ptr, ...) @error(ptr noundef @.str.16, ptr noundef %20)
  store i32 2060, ptr %2, align 4
  br label %45

22:                                               ; preds = %15, %9, %1
  %23 = load ptr, ptr %3, align 8
  %24 = getelementptr inbounds nuw %struct.job_record, ptr %23, i32 0, i32 114
  %25 = load i16, ptr %24, align 8
  %26 = zext i16 %25 to i32
  %27 = load i32, ptr @port_resv_cnt, align 4
  %28 = icmp sgt i32 %26, %27
  br i1 %28, label %29, label %44

29:                                               ; preds = %22
  br label %30

30:                                               ; preds = %29
  br label %31

31:                                               ; preds = %30
  %32 = call i32 @get_log_level()
  %33 = icmp sge i32 %32, 3
  br i1 %33, label %34, label %41

34:                                               ; preds = %31
  %35 = load ptr, ptr %3, align 8
  %36 = load ptr, ptr %3, align 8
  %37 = getelementptr inbounds nuw %struct.job_record, ptr %36, i32 0, i32 114
  %38 = load i16, ptr %37, align 8
  %39 = zext i16 %38 to i32
  %40 = load i32, ptr @port_resv_cnt, align 4
  call void (i32, ptr, ...) @log_var(i32 noundef 3, ptr noundef @.str.12, ptr noundef %35, i32 noundef %39, i32 noundef %40)
  br label %41

41:                                               ; preds = %34, %31
  br label %42

42:                                               ; preds = %41
  br label %43

43:                                               ; preds = %42
  store i32 2060, ptr %2, align 4
  br label %45

44:                                               ; preds = %22
  store i32 0, ptr %2, align 4
  br label %45

45:                                               ; preds = %44, %43, %19
  %46 = load i32, ptr %2, align 4
  ret i32 %46
}