; Function Attrs: nounwind uwtable
define dso_local range(i32 0, 2061) i32 @resv_port_check_job_request_cnt(ptr noundef %0) local_unnamed_addr #0 {
  %2 = getelementptr inbounds nuw i8, ptr %0, i64 848
  %3 = load i16, ptr %2, align 8
  %.not = icmp eq i16 %3, 0
  br i1 %.not, label %13, label %4

4:                                                ; preds = %1
  %5 = getelementptr inbounds nuw i8, ptr %0, i64 112
  %6 = load i64, ptr %5, align 8
  %7 = and i64 %6, 2199023255552
  %.not6 = icmp eq i64 %7, 0
  br i1 %.not6, label %8, label %13

8:                                                ; preds = %4
  %9 = load ptr, ptr getelementptr inbounds nuw (i8, ptr @slurm_conf, i64 1248), align 8
  %10 = tail call ptr @xstrstr(ptr noundef %9, ptr noundef nonnull @.str.15) #8
  %.not7 = icmp eq ptr %10, null
  br i1 %.not7, label %11, label %._crit_edge

._crit_edge:                                      ; preds = %8
  %.pre = load i16, ptr %2, align 8
  br label %13

11:                                               ; preds = %8
  %12 = tail call i32 (ptr, ...) @error(ptr noundef nonnull @.str.16, ptr noundef nonnull %0) #8
  br label %25

13:                                               ; preds = %._crit_edge, %4, %1
  %14 = phi i16 [ %.pre, %._crit_edge ], [ %3, %4 ], [ 0, %1 ]
  %15 = zext i16 %14 to i32
  %16 = load i32, ptr @port_resv_cnt, align 4
  %17 = icmp slt i32 %16, %15
  br i1 %17, label %18, label %25

18:                                               ; preds = %13
  %19 = tail call i32 @get_log_level() #8
  %20 = icmp sgt i32 %19, 2
  br i1 %20, label %21, label %25

21:                                               ; preds = %18
  %22 = load i16, ptr %2, align 8
  %23 = zext i16 %22 to i32
  %24 = load i32, ptr @port_resv_cnt, align 4
  tail call void (i32, ptr, ...) @log_var(i32 noundef 3, ptr noundef nonnull @.str.12, ptr noundef nonnull %0, i32 noundef %23, i32 noundef %24) #8
  br label %25

25:                                               ; preds = %13, %18, %21, %11
  %.0 = phi i32 [ 2060, %11 ], [ 2060, %21 ], [ 2060, %18 ], [ 0, %13 ]
  ret i32 %.0
}